; Function Attrs: mustprogress uwtable
define void @_ZN6icu_7514SimpleTimeZoneC2ERKS0_(ptr noundef nonnull align 8 dereferenceable(160) %this, ptr noundef nonnull align 8 dereferenceable(160) %source) unnamed_addr #1 align 2 personality ptr @__gxx_personality_v0 {
entry:
  tail call void @_ZN6icu_7513BasicTimeZoneC2ERKS0_(ptr noundef nonnull align 8 dereferenceable(72) %this, ptr noundef nonnull align 8 dereferenceable(72) %source)
  store ptr getelementptr inbounds ({ [24 x ptr] }, ptr @_ZTVN6icu_7514SimpleTimeZoneE, i64 0, i32 0, i64 2), ptr %this, align 8
  %cmp.not.i = icmp eq ptr %this, %source
  br i1 %cmp.not.i, label %invoke.cont, label %if.then.i

if.then.i:                                        ; preds = %entry
  %call.i2 = invoke noundef nonnull align 8 dereferenceable(72) ptr @_ZN6icu_758TimeZoneaSERKS0_(ptr noundef nonnull align 8 dereferenceable(72) %this, ptr noundef nonnull align 8 dereferenceable(72) %source)
          to label %call.i.noexc unwind label %lpad

call.i.noexc:                                     ; preds = %if.then.i
  %rawOffset.i = getelementptr inbounds i8, ptr %source, i64 100
  %0 = load i32, ptr %rawOffset.i, align 4
  %rawOffset2.i = getelementptr inbounds i8, ptr %this, i64 100
  store i32 %0, ptr %rawOffset2.i, align 4
  %startMonth.i = getelementptr inbounds i8, ptr %source, i64 72
  %1 = load i8, ptr %startMonth.i, align 8
  %startMonth3.i = getelementptr inbounds i8, ptr %this, i64 72
  store i8 %1, ptr %startMonth3.i, align 8
  %startDay.i = getelementptr inbounds i8, ptr %source, i64 73
  %2 = load i8, ptr %startDay.i, align 1
  %startDay4.i = getelementptr inbounds i8, ptr %this, i64 73
  store i8 %2, ptr %startDay4.i, align 1
  %startDayOfWeek.i = getelementptr inbounds i8, ptr %source, i64 74
  %3 = load i8, ptr %startDayOfWeek.i, align 2
  %startDayOfWeek5.i = getelementptr inbounds i8, ptr %this, i64 74
  store i8 %3, ptr %startDayOfWeek5.i, align 2
  %startTime.i = getelementptr inbounds i8, ptr %source, i64 76
  %4 = load i32, ptr %startTime.i, align 4
  %startTime6.i = getelementptr inbounds i8, ptr %this, i64 76
  store i32 %4, ptr %startTime6.i, align 4
  %startTimeMode.i = getelementptr inbounds i8, ptr %source, i64 80
  %5 = load i32, ptr %startTimeMode.i, align 8
  %startTimeMode7.i = getelementptr inbounds i8, ptr %this, i64 80
  store i32 %5, ptr %startTimeMode7.i, align 8
  %startMode.i = getelementptr inbounds i8, ptr %source, i64 108
  %6 = load i32, ptr %startMode.i, align 4
  %startMode8.i = getelementptr inbounds i8, ptr %this, i64 108
  store i32 %6, ptr %startMode8.i, align 4
  %endMonth.i = getelementptr inbounds i8, ptr %source, i64 88
  %7 = load i8, ptr %endMonth.i, align 8
  %endMonth9.i = getelementptr inbounds i8, ptr %this, i64 88
  store i8 %7, ptr %endMonth9.i, align 8
  %endDay.i = getelementptr inbounds i8, ptr %source, i64 89
  %8 = load i8, ptr %endDay.i, align 1
  %endDay10.i = getelementptr inbounds i8, ptr %this, i64 89
  store i8 %8, ptr %endDay10.i, align 1
  %endDayOfWeek.i = getelementptr inbounds i8, ptr %source, i64 90
  %9 = load i8, ptr %endDayOfWeek.i, align 2
  %endDayOfWeek11.i = getelementptr inbounds i8, ptr %this, i64 90
  store i8 %9, ptr %endDayOfWeek11.i, align 2
  %endTime.i = getelementptr inbounds i8, ptr %source, i64 92
  %10 = load i32, ptr %endTime.i, align 4
  %endTime12.i = getelementptr inbounds i8, ptr %this, i64 92
  store i32 %10, ptr %endTime12.i, align 4
  %endTimeMode.i = getelementptr inbounds i8, ptr %source, i64 84
  %11 = load i32, ptr %endTimeMode.i, align 4
  %endTimeMode13.i = getelementptr inbounds i8, ptr %this, i64 84
  store i32 %11, ptr %endTimeMode13.i, align 4
  %endMode.i = getelementptr inbounds i8, ptr %source, i64 112
  %12 = load i32, ptr %endMode.i, align 8
  %endMode14.i = getelementptr inbounds i8, ptr %this, i64 112
  store i32 %12, ptr %endMode14.i, align 8
  %startYear.i = getelementptr inbounds i8, ptr %source, i64 96
  %13 = load i32, ptr %startYear.i, align 8
  %startYear15.i = getelementptr inbounds i8, ptr %this, i64 96
  store i32 %13, ptr %startYear15.i, align 8
  %dstSavings.i = getelementptr inbounds i8, ptr %source, i64 116
  %14 = load i32, ptr %dstSavings.i, align 4
  %dstSavings16.i = getelementptr inbounds i8, ptr %this, i64 116
  store i32 %14, ptr %dstSavings16.i, align 4
  %useDaylight.i = getelementptr inbounds i8, ptr %source, i64 104
  %15 = load i8, ptr %useDaylight.i, align 8
  %useDaylight17.i = getelementptr inbounds i8, ptr %this, i64 104
  store i8 %15, ptr %useDaylight17.i, align 8
  %initialRule.i.i = getelementptr inbounds i8, ptr %this, i64 128
  %transitionRulesInitialized.i.i = getelementptr inbounds i8, ptr %this, i64 120
  store i8 0, ptr %transitionRulesInitialized.i.i, align 8
  tail call void @llvm.memset.p0.i64(ptr noundef nonnull align 8 dereferenceable(32) %initialRule.i.i, i8 0, i64 32, i1 false)
  br label %invoke.cont

invoke.cont:                                      ; preds = %call.i.noexc, %entry
  ret void

lpad:                                             ; preds = %if.then.i
  %16 = landingpad { ptr, i32 }
          cleanup
  tail call void @_ZN6icu_7513BasicTimeZoneD2Ev(ptr noundef nonnull align 8 dereferenceable(72) %this) #13
  resume { ptr, i32 } %16
}